; Function Attrs: nounwind uwtable
define internal ptr @monitoring_set_local_events(ptr readnone captures(none) %0, ptr noundef readonly captures(none) %1, i64 noundef %2) #2 {
  %or.cond = icmp eq i64 %2, 3
  br i1 %or.cond, label %6, label %4

4:                                                ; preds = %3
  %5 = tail call i32 @_PyArg_CheckPositional(ptr noundef nonnull @.str.21, i64 noundef %2, i64 noundef 3, i64 noundef 3) #11
  %.not = icmp eq i32 %5, 0
  br i1 %.not, label %monitoring_set_local_events_impl.exit, label %6

6:                                                ; preds = %3, %4
  %7 = load ptr, ptr %1, align 8, !tbaa !46
  %8 = tail call i32 @PyLong_AsInt(ptr noundef %7) #11
  %9 = icmp eq i32 %8, -1
  br i1 %9, label %10, label %12

10:                                               ; preds = %6
  %11 = tail call ptr @PyErr_Occurred() #11
  %.not15 = icmp eq ptr %11, null
  br i1 %.not15, label %12, label %monitoring_set_local_events_impl.exit

12:                                               ; preds = %10, %6
  %13 = getelementptr i8, ptr %1, i64 8
  %14 = load ptr, ptr %13, align 8, !tbaa !46
  %15 = getelementptr i8, ptr %1, i64 16
  %16 = load ptr, ptr %15, align 8, !tbaa !46
  %17 = tail call i32 @PyLong_AsInt(ptr noundef %16) #11
  %18 = icmp eq i32 %17, -1
  br i1 %18, label %20, label %.split

.split:                                           ; preds = %12
  %19 = tail call fastcc ptr @monitoring_set_local_events_impl(i32 noundef %8, ptr noundef %14, i32 noundef %17)
  br label %monitoring_set_local_events_impl.exit

20:                                               ; preds = %12
  %21 = tail call ptr @PyErr_Occurred() #11
  %.not16 = icmp eq ptr %21, null
  br i1 %.not16, label %.split13, label %monitoring_set_local_events_impl.exit

.split13:                                         ; preds = %20
  %22 = getelementptr i8, ptr %14, i64 8
  %.val.i = load ptr, ptr %22, align 8, !tbaa !66
  %.not.i = icmp eq ptr %.val.i, @PyCode_Type
  br i1 %.not.i, label %26, label %23

23:                                               ; preds = %.split13
  %24 = load ptr, ptr @PyExc_TypeError, align 8, !tbaa !46
  %25 = tail call ptr (ptr, ptr, ...) @PyErr_Format(ptr noundef %24, ptr noundef nonnull @.str.34) #11
  br label %monitoring_set_local_events_impl.exit

26:                                               ; preds = %.split13
  %or.cond.i.i = icmp ugt i32 %8, 5
  %27 = load ptr, ptr @PyExc_ValueError, align 8, !tbaa !46
  br i1 %or.cond.i.i, label %check_valid_tool.exit.i, label %29

check_valid_tool.exit.i:                          ; preds = %26
  %28 = tail call ptr (ptr, ptr, ...) @PyErr_Format(ptr noundef %27, ptr noundef nonnull @.str.27, i32 noundef %8) #11
  br label %monitoring_set_local_events_impl.exit

29:                                               ; preds = %26
  %30 = tail call ptr (ptr, ptr, ...) @PyErr_Format(ptr noundef %27, ptr noundef nonnull @.str.35, i32 noundef -458753) #11
  br label %monitoring_set_local_events_impl.exit

monitoring_set_local_events_impl.exit:            ; preds = %29, %check_valid_tool.exit.i, %23, %.split, %20, %10, %4
  %.0 = phi ptr [ null, %10 ], [ null, %20 ], [ null, %4 ], [ %19, %.split ], [ null, %23 ], [ null, %check_valid_tool.exit.i ], [ null, %29 ]
  ret ptr %.0
}